; Function Attrs: mustprogress uwtable
define void @_ZN3zmq6xpub_t26mark_last_pipe_as_matchingEPNS_6pipe_tEPS0_(ptr noundef %0, ptr noundef %1) local_unnamed_addr #0 align 2 {
  %3 = getelementptr inbounds nuw i8, ptr %1, i64 1968
  %4 = load ptr, ptr %3, align 8, !tbaa !119
  %5 = icmp eq ptr %4, %0
  br i1 %5, label %6, label %8

6:                                                ; preds = %2
  %7 = getelementptr inbounds nuw i8, ptr %1, i64 1896
  tail call void @_ZN3zmq6dist_t5matchEPNS_6pipe_tE(ptr noundef nonnull align 8 dereferenceable(49) %7, ptr noundef %0)
  br label %8

8:                                                ; preds = %6, %2
  ret void
}